target datalayout = "e-m:e-p270:32:32-p271:32:32-p272:64:64-i64:64-i128:128-f80:128-n8:16:32:64-S128"
target triple = "x86_64-pc-linux-gnu"

%struct.cli_ctx_tag = type { ptr, ptr, ptr, ptr, ptr, ptr, ptr, i64, ptr, i32, i32, ptr, i32, i32, ptr, [16 x i8], ptr, ptr, ptr, ptr, ptr, ptr, %struct.timeval, i8, i8 }
%struct.timeval = type { i64, i64 }
%struct.cl_fmap = type { ptr, ptr, ptr, i64, i64, i64, i64, i8, i8, i8, i64, i64, i64, i64, ptr, ptr, ptr, ptr, ptr, ptr, ptr, i8, [16 x i8], i8, [20 x i8], i8, [32 x i8], ptr, ptr }
%struct.cl_engine = type { i32, i32, i32, [2 x i32], i32, i32, i32, ptr, i32, i64, i32, i32, i64, i64, i32, i32, i32, i32, ptr, ptr, ptr, ptr, ptr, ptr, ptr, ptr, ptr, ptr, ptr, ptr, ptr, ptr, ptr, ptr, ptr, ptr, ptr, i64, ptr, %struct.crtmgr, ptr, ptr, ptr, ptr, ptr, ptr, ptr, ptr, ptr, ptr, ptr, ptr, ptr, ptr, ptr, ptr, ptr, %struct.cli_all_bc, [7 x ptr], [7 x i32], i32, i32, i32, i32, i64, i64, i64, i64, i64, ptr, ptr, ptr, ptr, ptr, ptr, ptr, ptr, ptr, i32, i32, i32, i64, i64, i64, ptr }
%struct.crtmgr = type { ptr, i32 }
%struct.cli_all_bc = type { ptr, i32, ptr, %struct.cli_environment, i32 }
%struct.cli_environment = type { i32, i32, i32, i32, i32, i32, i32, [65 x i8], [65 x i8], [65 x i8], [65 x i8], [65 x i8], [65 x i8], [65 x i8], i8, i8, i8, i8, i8, i8, i8, i8, i8 }

@.str.53 = private unnamed_addr constant [22 x i8] c"Failed to scan fmap.\0A\00", align 1
@.str.207 = private unnamed_addr constant [25 x i8] c"in cli_scanhtml_utf16()\0A\00", align 1
@.str.208 = private unnamed_addr constant [15 x i8] c"html-utf16-tmp\00", align 1
@.str.209 = private unnamed_addr constant [42 x i8] c"cli_scanhtml_utf16: Can't create file %s\0A\00", align 1
@.str.210 = private unnamed_addr constant [39 x i8] c"cli_scanhtml_utf16: using tempfile %s\0A\00", align 1
@.str.211 = private unnamed_addr constant [44 x i8] c"cli_scanhtml_utf16: Can't write to file %s\0A\00", align 1
@.str.212 = private unnamed_addr constant [87 x i8] c"cli_scanhtml_utf16: failed to create fmap for ascii HTML file decoded from utf16: %s\0A.\00", align 1
@.str.213 = private unnamed_addr constant [51 x i8] c"cli_scanhtml_utf16: Decoded HTML data saved in %s\0A\00", align 1

; Function Attrs: nounwind uwtable
define internal void @funmap(ptr noundef %0) #0 {
  %2 = alloca ptr, align 8
  store ptr %0, ptr %2, align 8
  %3 = load ptr, ptr %2, align 8
  %4 = getelementptr inbounds %struct.cl_fmap, ptr %3, i32 0, i32 14
  %5 = load ptr, ptr %4, align 8
  %6 = load ptr, ptr %2, align 8
  call void %5(ptr noundef %6)
  ret void
}

; Function Attrs: nounwind uwtable
define internal ptr @fmap_need_off_once(ptr noundef %0, i64 noundef %1, i64 noundef %2) #0 {
  %4 = alloca ptr, align 8
  %5 = alloca i64, align 8
  %6 = alloca i64, align 8
  store ptr %0, ptr %4, align 8
  store i64 %1, ptr %5, align 8
  store i64 %2, ptr %6, align 8
  %7 = load ptr, ptr %4, align 8
  %8 = getelementptr inbounds %struct.cl_fmap, ptr %7, i32 0, i32 15
  %9 = load ptr, ptr %8, align 8
  %10 = load ptr, ptr %4, align 8
  %11 = load i64, ptr %5, align 8
  %12 = load i64, ptr %6, align 8
  %13 = call ptr %9(ptr noundef %10, i64 noundef %11, i64 noundef %12, i32 noundef 0)
  ret ptr %13
}

; Function Attrs: nounwind uwtable
define internal i32 @cli_scanhtml_utf16(ptr noundef %0) #0 {
  %2 = alloca ptr, align 8
  %3 = alloca i32, align 4
  %4 = alloca ptr, align 8
  %5 = alloca ptr, align 8
  %6 = alloca ptr, align 8
  %7 = alloca i32, align 4
  %8 = alloca i32, align 4
  %9 = alloca i64, align 8
  %10 = alloca ptr, align 8
  store ptr %0, ptr %2, align 8
  store i32 34, ptr %3, align 4
  store ptr null, ptr %4, align 8
  store ptr null, ptr %5, align 8
  store i32 -1, ptr %7, align 4
  store i64 0, ptr %9, align 8
  store ptr null, ptr %10, align 8
  call void (ptr, ...) @cli_dbgmsg(ptr noundef @.str.207)
  %11 = load ptr, ptr %2, align 8
  %12 = getelementptr inbounds %struct.cli_ctx_tag, ptr %11, i32 0, i32 2
  %13 = load ptr, ptr %12, align 8
  %14 = call ptr @cli_gentemp_with_prefix(ptr noundef %13, ptr noundef @.str.208)
  store ptr %14, ptr %4, align 8
  %15 = icmp ne ptr %14, null
  br i1 %15, label %17, label %16

16:                                               ; preds = %1
  store i32 20, ptr %3, align 4
  br label %121

17:                                               ; preds = %1
  %18 = load ptr, ptr %4, align 8
  %19 = call i32 (ptr, i32, ...) @open(ptr noundef %18, i32 noundef 578, i32 noundef 384)
  store i32 %19, ptr %7, align 4
  %20 = icmp slt i32 %19, 0
  br i1 %20, label %21, label %23

21:                                               ; preds = %17
  %22 = load ptr, ptr %4, align 8
  call void (ptr, ...) @cli_errmsg(ptr noundef @.str.209, ptr noundef %22)
  store i32 8, ptr %3, align 4
  br label %121

23:                                               ; preds = %17
  %24 = load ptr, ptr %4, align 8
  call void (ptr, ...) @cli_dbgmsg(ptr noundef @.str.210, ptr noundef %24)
  br label %25

25:                                               ; preds = %97, %23
  %26 = load i64, ptr %9, align 8
  %27 = load ptr, ptr %2, align 8
  %28 = getelementptr inbounds %struct.cli_ctx_tag, ptr %27, i32 0, i32 14
  %29 = load ptr, ptr %28, align 8
  %30 = getelementptr inbounds %struct.cl_fmap, ptr %29, i32 0, i32 13
  %31 = load i64, ptr %30, align 8
  %32 = icmp ult i64 %26, %31
  br i1 %32, label %33, label %98

33:                                               ; preds = %25
  %34 = load ptr, ptr %2, align 8
  %35 = getelementptr inbounds %struct.cli_ctx_tag, ptr %34, i32 0, i32 14
  %36 = load ptr, ptr %35, align 8
  %37 = getelementptr inbounds %struct.cl_fmap, ptr %36, i32 0, i32 13
  %38 = load i64, ptr %37, align 8
  %39 = load i64, ptr %9, align 8
  %40 = sub i64 %38, %39
  %41 = load ptr, ptr %2, align 8
  %42 = getelementptr inbounds %struct.cli_ctx_tag, ptr %41, i32 0, i32 14
  %43 = load ptr, ptr %42, align 8
  %44 = getelementptr inbounds %struct.cl_fmap, ptr %43, i32 0, i32 5
  %45 = load i64, ptr %44, align 8
  %46 = mul i64 %45, 16
  %47 = icmp ult i64 %40, %46
  br i1 %47, label %48, label %56

48:                                               ; preds = %33
  %49 = load ptr, ptr %2, align 8
  %50 = getelementptr inbounds %struct.cli_ctx_tag, ptr %49, i32 0, i32 14
  %51 = load ptr, ptr %50, align 8
  %52 = getelementptr inbounds %struct.cl_fmap, ptr %51, i32 0, i32 13
  %53 = load i64, ptr %52, align 8
  %54 = load i64, ptr %9, align 8
  %55 = sub i64 %53, %54
  br label %63

56:                                               ; preds = %33
  %57 = load ptr, ptr %2, align 8
  %58 = getelementptr inbounds %struct.cli_ctx_tag, ptr %57, i32 0, i32 14
  %59 = load ptr, ptr %58, align 8
  %60 = getelementptr inbounds %struct.cl_fmap, ptr %59, i32 0, i32 5
  %61 = load i64, ptr %60, align 8
  %62 = mul i64 %61, 16
  br label %63

63:                                               ; preds = %56, %48
  %64 = phi i64 [ %55, %48 ], [ %62, %56 ]
  %65 = trunc i64 %64 to i32
  store i32 %65, ptr %8, align 4
  %66 = load ptr, ptr %2, align 8
  %67 = getelementptr inbounds %struct.cli_ctx_tag, ptr %66, i32 0, i32 14
  %68 = load ptr, ptr %67, align 8
  %69 = load i64, ptr %9, align 8
  %70 = load i32, ptr %8, align 4
  %71 = sext i32 %70 to i64
  %72 = call ptr @fmap_need_off_once(ptr noundef %68, i64 noundef %69, i64 noundef %71)
  store ptr %72, ptr %6, align 8
  %73 = icmp ne ptr %72, null
  br i1 %73, label %75, label %74

74:                                               ; preds = %63
  store i32 12, ptr %3, align 4
  br label %121

75:                                               ; preds = %63
  %76 = load i32, ptr %8, align 4
  %77 = sext i32 %76 to i64
  %78 = load i64, ptr %9, align 8
  %79 = add i64 %78, %77
  store i64 %79, ptr %9, align 8
  %80 = load ptr, ptr %6, align 8
  %81 = load i32, ptr %8, align 4
  %82 = call ptr @cli_utf16toascii(ptr noundef %80, i32 noundef %81)
  store ptr %82, ptr %5, align 8
  %83 = load ptr, ptr %5, align 8
  %84 = icmp ne ptr %83, null
  br i1 %84, label %85, label %97

85:                                               ; preds = %75
  %86 = load i32, ptr %7, align 4
  %87 = load ptr, ptr %5, align 8
  %88 = load i32, ptr %8, align 4
  %89 = sdiv i32 %88, 2
  %90 = sext i32 %89 to i64
  %91 = call i64 @write(i32 noundef %86, ptr noundef %87, i64 noundef %90)
  %92 = icmp eq i64 %91, -1
  br i1 %92, label %93, label %95

93:                                               ; preds = %85
  %94 = load ptr, ptr %4, align 8
  call void (ptr, ...) @cli_errmsg(ptr noundef @.str.211, ptr noundef %94)
  store i32 14, ptr %3, align 4
  br label %121

95:                                               ; preds = %85
  %96 = load ptr, ptr %5, align 8
  call void @free(ptr noundef %96) #11
  store ptr null, ptr %5, align 8
  br label %97

97:                                               ; preds = %95, %75
  br label %25

98:                                               ; preds = %25
  %99 = load i32, ptr %7, align 4
  %100 = call ptr @fmap(i32 noundef %99, i64 noundef 0, i64 noundef 0, ptr noundef null)
  store ptr %100, ptr %10, align 8
  %101 = load ptr, ptr %10, align 8
  %102 = icmp eq ptr null, %101
  br i1 %102, label %103, label %105

103:                                              ; preds = %98
  %104 = load ptr, ptr %4, align 8
  call void (ptr, ...) @cli_errmsg(ptr noundef @.str.212, ptr noundef %104)
  store i32 20, ptr %3, align 4
  br label %121

105:                                              ; preds = %98
  %106 = load ptr, ptr %2, align 8
  %107 = load ptr, ptr %10, align 8
  %108 = call i32 @cli_recursion_stack_push(ptr noundef %106, ptr noundef %107, i32 noundef 560, i1 noundef zeroext true, i32 noundef 1)
  store i32 %108, ptr %3, align 4
  %109 = load i32, ptr %3, align 4
  %110 = icmp ne i32 0, %109
  br i1 %110, label %111, label %112

111:                                              ; preds = %105
  call void (ptr, ...) @cli_dbgmsg(ptr noundef @.str.53)
  br label %121

112:                                              ; preds = %105
  %113 = load ptr, ptr %2, align 8
  %114 = call i32 @cli_scanhtml(ptr noundef %113)
  store i32 %114, ptr %3, align 4
  %115 = load ptr, ptr %2, align 8
  %116 = call ptr @cli_recursion_stack_pop(ptr noundef %115)
  %117 = load i32, ptr %3, align 4
  %118 = icmp ne i32 0, %117
  br i1 %118, label %119, label %120

119:                                              ; preds = %112
  br label %121

120:                                              ; preds = %112
  br label %121

121:                                              ; preds = %120, %119, %111, %103, %93, %74, %21, %16
  %122 = load ptr, ptr %10, align 8
  %123 = icmp ne ptr null, %122
  br i1 %123, label %124, label %126

124:                                              ; preds = %121
  %125 = load ptr, ptr %10, align 8
  call void @funmap(ptr noundef %125)
  br label %126

126:                                              ; preds = %124, %121
  %127 = load i32, ptr %7, align 4
  %128 = icmp ne i32 -1, %127
  br i1 %128, label %129, label %132

129:                                              ; preds = %126
  %130 = load i32, ptr %7, align 4
  %131 = call i32 @close(i32 noundef %130)
  br label %132

132:                                              ; preds = %129, %126
  %133 = load ptr, ptr %5, align 8
  %134 = icmp ne ptr null, %133
  br i1 %134, label %135, label %137

135:                                              ; preds = %132
  %136 = load ptr, ptr %5, align 8
  call void @free(ptr noundef %136) #11
  br label %137

137:                                              ; preds = %135, %132
  %138 = load ptr, ptr %4, align 8
  %139 = icmp ne ptr null, %138
  br i1 %139, label %140, label %154

140:                                              ; preds = %137
  %141 = load ptr, ptr %2, align 8
  %142 = getelementptr inbounds %struct.cli_ctx_tag, ptr %141, i32 0, i32 6
  %143 = load ptr, ptr %142, align 8
  %144 = getelementptr inbounds %struct.cl_engine, ptr %143, i32 0, i32 8
  %145 = load i32, ptr %144, align 8
  %146 = icmp ne i32 %145, 0
  br i1 %146, label %150, label %147

147:                                              ; preds = %140
  %148 = load ptr, ptr %4, align 8
  %149 = call i32 @cli_unlink(ptr noundef %148)
  br label %152

150:                                              ; preds = %140
  %151 = load ptr, ptr %4, align 8
  call void (ptr, ...) @cli_dbgmsg(ptr noundef @.str.213, ptr noundef %151)
  br label %152

152:                                              ; preds = %150, %147
  %153 = load ptr, ptr %4, align 8
  call void @free(ptr noundef %153) #11
  br label %154

154:                                              ; preds = %152, %137
  %155 = load i32, ptr %3, align 4
  ret i32 %155
}