; Function Attrs: nounwind uwtable
define internal fastcc i32 @cli_scanhtml_utf16(ptr noundef %0) unnamed_addr #0 {
  tail call void (ptr, ...) @cli_dbgmsg(ptr noundef nonnull @.str.207) #16
  %2 = getelementptr inbounds nuw i8, ptr %0, i64 16
  %3 = load ptr, ptr %2, align 8
  %4 = tail call ptr @cli_gentemp_with_prefix(ptr noundef %3, ptr noundef nonnull @.str.208) #16
  %.not = icmp eq ptr %4, null
  br i1 %.not, label %.thread87, label %5

5:                                                ; preds = %1
  %6 = tail call i32 (ptr, i32, ...) @open(ptr noundef nonnull %4, i32 noundef 578, i32 noundef 384) #16
  %7 = icmp slt i32 %6, 0
  br i1 %7, label %8, label %9

8:                                                ; preds = %5
  tail call void (ptr, ...) @cli_errmsg(ptr noundef nonnull @.str.209, ptr noundef nonnull %4) #16
  br label %.thread

9:                                                ; preds = %5
  tail call void (ptr, ...) @cli_dbgmsg(ptr noundef nonnull @.str.210, ptr noundef nonnull %4) #16
  %10 = getelementptr inbounds nuw i8, ptr %0, i64 96
  %11 = load ptr, ptr %10, align 8
  %12 = getelementptr inbounds nuw i8, ptr %11, i64 88
  %13 = load i64, ptr %12, align 8
  %.not91 = icmp eq i64 %13, 0
  br i1 %.not91, label %._crit_edge, label %.lr.ph

.lr.ph:                                           ; preds = %9, %35
  %14 = phi i64 [ %38, %35 ], [ %13, %9 ]
  %15 = phi ptr [ %36, %35 ], [ %11, %9 ]
  %.04490 = phi i64 [ %26, %35 ], [ 0, %9 ]
  %16 = sub nuw i64 %14, %.04490
  %17 = getelementptr inbounds nuw i8, ptr %15, i64 40
  %18 = load i64, ptr %17, align 8
  %19 = shl i64 %18, 4
  %. = tail call i64 @llvm.umin.i64(i64 %16, i64 %19)
  %20 = trunc i64 %. to i32
  %sext = shl i64 %., 32
  %21 = ashr exact i64 %sext, 32
  %22 = getelementptr inbounds nuw i8, ptr %15, i64 104
  %23 = load ptr, ptr %22, align 8
  %24 = tail call ptr %23(ptr noundef nonnull %15, i64 noundef %.04490, i64 noundef %21, i32 noundef 0) #16
  %.not62 = icmp eq ptr %24, null
  br i1 %.not62, label %.thread, label %25

25:                                               ; preds = %.lr.ph
  %26 = add i64 %21, %.04490
  %27 = tail call ptr @cli_utf16toascii(ptr noundef nonnull %24, i32 noundef %20) #16
  %.not63 = icmp eq ptr %27, null
  br i1 %.not63, label %35, label %28

28:                                               ; preds = %25
  %29 = sdiv i32 %20, 2
  %30 = sext i32 %29 to i64
  %31 = tail call i64 @write(i32 noundef %6, ptr noundef nonnull %27, i64 noundef %30) #16
  %32 = icmp eq i64 %31, -1
  br i1 %32, label %33, label %34

33:                                               ; preds = %28
  tail call void (ptr, ...) @cli_errmsg(ptr noundef nonnull @.str.211, ptr noundef nonnull %4) #16
  br label %.thread

34:                                               ; preds = %28
  tail call void @free(ptr noundef nonnull %27) #16
  br label %35

35:                                               ; preds = %34, %25
  %36 = load ptr, ptr %10, align 8
  %37 = getelementptr inbounds nuw i8, ptr %36, i64 88
  %38 = load i64, ptr %37, align 8
  %39 = icmp ult i64 %26, %38
  br i1 %39, label %.lr.ph, label %._crit_edge

._crit_edge:                                      ; preds = %35, %9
  %40 = tail call ptr @fmap(i32 noundef %6, i64 noundef 0, i64 noundef 0, ptr noundef null) #16
  %41 = icmp eq ptr %40, null
  br i1 %41, label %42, label %43

42:                                               ; preds = %._crit_edge
  tail call void (ptr, ...) @cli_errmsg(ptr noundef nonnull @.str.212, ptr noundef nonnull %4) #16
  br label %.thread

43:                                               ; preds = %._crit_edge
  %44 = tail call i32 @cli_recursion_stack_push(ptr noundef nonnull %0, ptr noundef nonnull %40, i32 noundef 560, i1 noundef zeroext true, i32 noundef 1) #16
  %.not61 = icmp eq i32 %44, 0
  br i1 %.not61, label %46, label %45

45:                                               ; preds = %43
  tail call void (ptr, ...) @cli_dbgmsg(ptr noundef nonnull @.str.53) #16
  br label %49

46:                                               ; preds = %43
  %47 = tail call fastcc i32 @cli_scanhtml(ptr noundef nonnull %0)
  %48 = tail call ptr @cli_recursion_stack_pop(ptr noundef nonnull %0) #16
  br label %49

49:                                               ; preds = %45, %46
  %.045 = phi i32 [ %44, %45 ], [ %47, %46 ]
  %50 = getelementptr inbounds nuw i8, ptr %40, i64 96
  %51 = load ptr, ptr %50, align 8
  tail call void %51(ptr noundef nonnull %40) #16
  br label %.thread

.thread:                                          ; preds = %.lr.ph, %42, %33, %8, %49
  %.04575 = phi i32 [ %.045, %49 ], [ 20, %42 ], [ 14, %33 ], [ 8, %8 ], [ 12, %.lr.ph ]
  %.04773 = phi ptr [ null, %49 ], [ null, %42 ], [ %27, %33 ], [ null, %8 ], [ null, %.lr.ph ]
  %.not65 = icmp eq i32 %6, -1
  br i1 %.not65, label %54, label %52

52:                                               ; preds = %.thread
  %53 = tail call i32 @close(i32 noundef %6) #16
  br label %54

54:                                               ; preds = %52, %.thread
  %.not66 = icmp eq ptr %.04773, null
  br i1 %.not66, label %56, label %55

55:                                               ; preds = %54
  tail call void @free(ptr noundef nonnull %.04773) #16
  br label %56

56:                                               ; preds = %54, %55
  %57 = getelementptr inbounds nuw i8, ptr %0, i64 48
  %58 = load ptr, ptr %57, align 8
  %59 = getelementptr inbounds nuw i8, ptr %58, i64 40
  %60 = load i32, ptr %59, align 8
  %.not67 = icmp eq i32 %60, 0
  br i1 %.not67, label %61, label %63

61:                                               ; preds = %56
  %62 = tail call i32 @cli_unlink(ptr noundef nonnull %4) #16
  br label %64

63:                                               ; preds = %56
  tail call void (ptr, ...) @cli_dbgmsg(ptr noundef nonnull @.str.213, ptr noundef nonnull %4) #16
  br label %64

64:                                               ; preds = %63, %61
  tail call void @free(ptr noundef nonnull %4) #16
  br label %.thread87

.thread87:                                        ; preds = %1, %64
  %.04575808689 = phi i32 [ %.04575, %64 ], [ 20, %1 ]
  ret i32 %.04575808689
}